; Function Attrs: nounwind uwtable
define internal noundef i32 @f_lines(ptr noundef %0) #0 {
  %2 = tail call ptr @luaL_checkudata(ptr noundef %0, i32 noundef 1, ptr noundef nonnull @.str.16) #9
  %3 = getelementptr inbounds nuw i8, ptr %2, i64 8
  %4 = load ptr, ptr %3, align 8, !tbaa !9
  %5 = icmp eq ptr %4, null
  br i1 %5, label %6, label %tofile.exit, !prof !12

6:                                                ; preds = %1
  %7 = tail call i32 (ptr, ptr, ...) @luaL_error(ptr noundef %0, ptr noundef nonnull @.str.17) #9
  br label %tofile.exit

tofile.exit:                                      ; preds = %1, %6
  tail call fastcc void @aux_lines(ptr noundef %0, i32 noundef 0)
  ret i32 1
}